; Function Attrs: mustprogress uwtable
define void @_ZN8QuantLib3ASX8nextCodeERKNSt7__cxx1112basic_stringIcSt11char_traitsIcESaIcEEEbRKNS_4DateE(ptr dead_on_unwind noalias writable sret(%"class.std::__cxx11::basic_string") align 8 %agg.result, ptr noundef nonnull align 8 dereferenceable(32) %asxCode, i1 noundef zeroext %mainCycle, ptr nocapture noundef nonnull readonly align 8 dereferenceable(8) %referenceDate) local_unnamed_addr #3 align 2 {
entry:
  %ref.tmp.i = alloca %"class.QuantLib::Date", align 8
  %date = alloca %"class.QuantLib::Date", align 8
  call void @llvm.lifetime.start.p0(i64 8, ptr nonnull %date) #17
  %call.i = tail call i64 @_ZN8QuantLib3ASX4dateERKNSt7__cxx1112basic_stringIcSt11char_traitsIcESaIcEEERKNS_4DateE(ptr noundef nonnull align 8 dereferenceable(32) %asxCode, ptr noundef nonnull readonly align 8 dereferenceable(8) %referenceDate)
  call void @llvm.lifetime.start.p0(i64 8, ptr nonnull %ref.tmp.i) #17
  %add.i.i = add nsw i64 %call.i, 1
  call void @_ZN8QuantLib4DateC1El(ptr noundef nonnull align 8 dereferenceable(8) %ref.tmp.i, i64 noundef %add.i.i)
  %call3.i = call i64 @_ZN8QuantLib3ASX8nextDateERKNS_4DateEb(ptr noundef nonnull align 8 dereferenceable(8) %ref.tmp.i, i1 noundef zeroext %mainCycle)
  call void @llvm.lifetime.end.p0(i64 8, ptr nonnull %ref.tmp.i) #17
  store i64 %call3.i, ptr %date, align 8
  call void @_ZN8QuantLib3ASX4codeB5cxx11ERKNS_4DateE(ptr dead_on_unwind writable sret(%"class.std::__cxx11::basic_string") align 8 %agg.result, ptr noundef nonnull align 8 dereferenceable(8) %date)
  call void @llvm.lifetime.end.p0(i64 8, ptr nonnull %date) #17
  ret void
}